target datalayout = "e-m:e-p270:32:32-p271:32:32-p272:64:64-i64:64-i128:128-f80:128-n8:16:32:64-S128"
target triple = "x86_64-pc-linux-gnu"

%"class.ZXing::BitMatrix" = type { i32, i32, %"class.std::vector" }
%"class.std::vector" = type { %"struct.std::_Vector_base" }
%"struct.std::_Vector_base" = type { %"struct.std::_Vector_base<unsigned char, std::allocator<unsigned char>>::_Vector_impl" }
%"struct.std::_Vector_base<unsigned char, std::allocator<unsigned char>>::_Vector_impl" = type { %"struct.std::_Vector_base<unsigned char, std::allocator<unsigned char>>::_Vector_impl_data" }
%"struct.std::_Vector_base<unsigned char, std::allocator<unsigned char>>::_Vector_impl_data" = type { ptr, ptr, ptr }

@.str.5 = private unnamed_addr constant [74 x i8] c"vector::_M_range_check: __n (which is %zu) >= this->size() (which is %zu)\00", align 1

; Function Attrs: mustprogress nounwind uwtable
define linkonce_odr noundef i64 @_ZNKSt6vectorIhSaIhEE4sizeEv(ptr noundef nonnull align 8 dereferenceable(24) %0) #4 comdat align 2 {
  %2 = alloca ptr, align 8
  store ptr %0, ptr %2, align 8, !tbaa !22
  %3 = load ptr, ptr %2, align 8
  %4 = getelementptr inbounds nuw %"struct.std::_Vector_base", ptr %3, i32 0, i32 0
  %5 = getelementptr inbounds nuw %"struct.std::_Vector_base<unsigned char, std::allocator<unsigned char>>::_Vector_impl_data", ptr %4, i32 0, i32 1
  %6 = load ptr, ptr %5, align 8, !tbaa !71
  %7 = getelementptr inbounds nuw %"struct.std::_Vector_base", ptr %3, i32 0, i32 0
  %8 = getelementptr inbounds nuw %"struct.std::_Vector_base<unsigned char, std::allocator<unsigned char>>::_Vector_impl_data", ptr %7, i32 0, i32 0
  %9 = load ptr, ptr %8, align 8, !tbaa !26
  %10 = ptrtoint ptr %6 to i64
  %11 = ptrtoint ptr %9 to i64
  %12 = sub i64 %10, %11
  ret i64 %12
}

; Function Attrs: mustprogress nounwind uwtable
define linkonce_odr noundef nonnull align 1 dereferenceable(1) ptr @_ZNKSt6vectorIhSaIhEEixEm(ptr noundef nonnull align 8 dereferenceable(24) %0, i64 noundef %1) #4 comdat align 2 {
  %3 = alloca ptr, align 8
  %4 = alloca i64, align 8
  store ptr %0, ptr %3, align 8, !tbaa !22
  store i64 %1, ptr %4, align 8, !tbaa !24
  %5 = load ptr, ptr %3, align 8
  %6 = getelementptr inbounds nuw %"struct.std::_Vector_base", ptr %5, i32 0, i32 0
  %7 = getelementptr inbounds nuw %"struct.std::_Vector_base<unsigned char, std::allocator<unsigned char>>::_Vector_impl_data", ptr %6, i32 0, i32 0
  %8 = load ptr, ptr %7, align 8, !tbaa !26
  %9 = load i64, ptr %4, align 8, !tbaa !24
  %10 = getelementptr inbounds nuw i8, ptr %8, i64 %9
  ret ptr %10
}

; Function Attrs: mustprogress uwtable
define linkonce_odr void @_ZNKSt6vectorIhSaIhEE14_M_range_checkEm(ptr noundef nonnull align 8 dereferenceable(24) %0, i64 noundef %1) #0 comdat align 2 {
  %3 = alloca ptr, align 8
  %4 = alloca i64, align 8
  store ptr %0, ptr %3, align 8, !tbaa !22
  store i64 %1, ptr %4, align 8, !tbaa !24
  %5 = load ptr, ptr %3, align 8
  %6 = load i64, ptr %4, align 8, !tbaa !24
  %7 = call noundef i64 @_ZNKSt6vectorIhSaIhEE4sizeEv(ptr noundef nonnull align 8 dereferenceable(24) %5) #16
  %8 = icmp uge i64 %6, %7
  br i1 %8, label %9, label %12

9:                                                ; preds = %2
  %10 = load i64, ptr %4, align 8, !tbaa !24
  %11 = call noundef i64 @_ZNKSt6vectorIhSaIhEE4sizeEv(ptr noundef nonnull align 8 dereferenceable(24) %5) #16
  call void (ptr, ...) @_ZSt24__throw_out_of_range_fmtPKcz(ptr noundef @.str.5, i64 noundef %10, i64 noundef %11) #17
  unreachable

12:                                               ; preds = %2
  ret void
}

; Function Attrs: mustprogress uwtable
define linkonce_odr noundef nonnull align 1 dereferenceable(1) ptr @_ZNKSt6vectorIhSaIhEE2atEm(ptr noundef nonnull align 8 dereferenceable(24) %0, i64 noundef %1) #0 comdat align 2 {
  %3 = alloca ptr, align 8
  %4 = alloca i64, align 8
  store ptr %0, ptr %3, align 8, !tbaa !22
  store i64 %1, ptr %4, align 8, !tbaa !24
  %5 = load ptr, ptr %3, align 8
  %6 = load i64, ptr %4, align 8, !tbaa !24
  call void @_ZNKSt6vectorIhSaIhEE14_M_range_checkEm(ptr noundef nonnull align 8 dereferenceable(24) %5, i64 noundef %6)
  %7 = load i64, ptr %4, align 8, !tbaa !24
  %8 = call noundef nonnull align 1 dereferenceable(1) ptr @_ZNKSt6vectorIhSaIhEEixEm(ptr noundef nonnull align 8 dereferenceable(24) %5, i64 noundef %7) #16
  ret ptr %8
}

; Function Attrs: mustprogress uwtable
define linkonce_odr noundef nonnull align 1 dereferenceable(1) ptr @_ZN5ZXing9BitMatrix3getEi(ptr noundef nonnull align 8 dereferenceable(32) %0, i32 noundef %1) #0 comdat align 2 {
  %3 = alloca ptr, align 8
  %4 = alloca i32, align 4
  store ptr %0, ptr %3, align 8, !tbaa !3
  store i32 %1, ptr %4, align 4, !tbaa !8
  %5 = load ptr, ptr %3, align 8
  %6 = load i32, ptr %4, align 4, !tbaa !8
  %7 = call noundef nonnull align 1 dereferenceable(1) ptr @_ZNK5ZXing9BitMatrix3getEi(ptr noundef nonnull align 8 dereferenceable(32) %5, i32 noundef %6)
  ret ptr %7
}

; Function Attrs: mustprogress uwtable
define linkonce_odr noundef nonnull align 1 dereferenceable(1) ptr @_ZNK5ZXing9BitMatrix3getEi(ptr noundef nonnull align 8 dereferenceable(32) %0, i32 noundef %1) #0 comdat align 2 {
  %3 = alloca ptr, align 8
  %4 = alloca i32, align 4
  store ptr %0, ptr %3, align 8, !tbaa !3
  store i32 %1, ptr %4, align 4, !tbaa !8
  %5 = load ptr, ptr %3, align 8
  %6 = getelementptr inbounds nuw %"class.ZXing::BitMatrix", ptr %5, i32 0, i32 2
  %7 = load i32, ptr %4, align 4, !tbaa !8
  %8 = sext i32 %7 to i64
  %9 = call noundef nonnull align 1 dereferenceable(1) ptr @_ZNKSt6vectorIhSaIhEE2atEm(ptr noundef nonnull align 8 dereferenceable(24) %6, i64 noundef %8)
  ret ptr %9
}

; Function Attrs: mustprogress uwtable
define linkonce_odr void @_ZN5ZXing9BitMatrix4flipEii(ptr noundef nonnull align 8 dereferenceable(32) %0, i32 noundef %1, i32 noundef %2) #0 comdat align 2 {
  %4 = alloca ptr, align 8
  %5 = alloca i32, align 4
  %6 = alloca i32, align 4
  %7 = alloca ptr, align 8
  store ptr %0, ptr %4, align 8, !tbaa !3
  store i32 %1, ptr %5, align 4, !tbaa !8
  store i32 %2, ptr %6, align 4, !tbaa !8
  %8 = load ptr, ptr %4, align 8
  call void @llvm.lifetime.start.p0(i64 8, ptr %7) #16
  %9 = load i32, ptr %6, align 4, !tbaa !8
  %10 = getelementptr inbounds nuw %"class.ZXing::BitMatrix", ptr %8, i32 0, i32 0
  %11 = load i32, ptr %10, align 8, !tbaa !17
  %12 = mul nsw i32 %9, %11
  %13 = load i32, ptr %5, align 4, !tbaa !8
  %14 = add nsw i32 %12, %13
  %15 = call noundef nonnull align 1 dereferenceable(1) ptr @_ZN5ZXing9BitMatrix3getEi(ptr noundef nonnull align 8 dereferenceable(32) %8, i32 noundef %14)
  store ptr %15, ptr %7, align 8, !tbaa !34
  %16 = load ptr, ptr %7, align 8, !tbaa !34
  %17 = load i8, ptr %16, align 1, !tbaa !18
  %18 = icmp ne i8 %17, 0
  %19 = xor i1 %18, true
  %20 = zext i1 %19 to i8
  %21 = load ptr, ptr %7, align 8, !tbaa !34
  store i8 %20, ptr %21, align 1, !tbaa !18
  call void @llvm.lifetime.end.p0(i64 8, ptr %7) #16
  ret void
}

; Function Attrs: mustprogress uwtable
define linkonce_odr noundef zeroext i1 @_ZNK5ZXing9BitMatrix3getEii(ptr noundef nonnull align 8 dereferenceable(32) %0, i32 noundef %1, i32 noundef %2) #0 comdat align 2 {
  %4 = alloca ptr, align 8
  %5 = alloca i32, align 4
  %6 = alloca i32, align 4
  store ptr %0, ptr %4, align 8, !tbaa !3
  store i32 %1, ptr %5, align 4, !tbaa !8
  store i32 %2, ptr %6, align 4, !tbaa !8
  %7 = load ptr, ptr %4, align 8
  %8 = load i32, ptr %6, align 4, !tbaa !8
  %9 = getelementptr inbounds nuw %"class.ZXing::BitMatrix", ptr %7, i32 0, i32 0
  %10 = load i32, ptr %9, align 8, !tbaa !17
  %11 = mul nsw i32 %8, %10
  %12 = load i32, ptr %5, align 4, !tbaa !8
  %13 = add nsw i32 %11, %12
  %14 = call noundef nonnull align 1 dereferenceable(1) ptr @_ZNK5ZXing9BitMatrix3getEi(ptr noundef nonnull align 8 dereferenceable(32) %7, i32 noundef %13)
  %15 = load i8, ptr %14, align 1, !tbaa !18
  %16 = icmp ne i8 %15, 0
  ret i1 %16
}

; Function Attrs: mustprogress uwtable
define void @_ZN5ZXing9BitMatrix6mirrorEv(ptr noundef nonnull align 8 dereferenceable(32) %0) #0 align 2 {
  %2 = alloca ptr, align 8
  %3 = alloca i32, align 4
  %4 = alloca i32, align 4
  %5 = alloca i32, align 4
  store ptr %0, ptr %2, align 8, !tbaa !3
  %6 = load ptr, ptr %2, align 8
  call void @llvm.lifetime.start.p0(i64 4, ptr %3) #16
  store i32 0, ptr %3, align 4, !tbaa !8
  br label %7

7:                                                ; preds = %42, %1
  %8 = load i32, ptr %3, align 4, !tbaa !8
  %9 = getelementptr inbounds nuw %"class.ZXing::BitMatrix", ptr %6, i32 0, i32 0
  %10 = load i32, ptr %9, align 8, !tbaa !17
  %11 = icmp slt i32 %8, %10
  br i1 %11, label %13, label %12

12:                                               ; preds = %7
  store i32 2, ptr %4, align 4
  call void @llvm.lifetime.end.p0(i64 4, ptr %3) #16
  br label %45

13:                                               ; preds = %7
  call void @llvm.lifetime.start.p0(i64 4, ptr %5) #16
  %14 = load i32, ptr %3, align 4, !tbaa !8
  %15 = add nsw i32 %14, 1
  store i32 %15, ptr %5, align 4, !tbaa !8
  br label %16

16:                                               ; preds = %38, %13
  %17 = load i32, ptr %5, align 4, !tbaa !8
  %18 = getelementptr inbounds nuw %"class.ZXing::BitMatrix", ptr %6, i32 0, i32 1
  %19 = load i32, ptr %18, align 4, !tbaa !10
  %20 = icmp slt i32 %17, %19
  br i1 %20, label %22, label %21

21:                                               ; preds = %16
  store i32 5, ptr %4, align 4
  call void @llvm.lifetime.end.p0(i64 4, ptr %5) #16
  br label %41

22:                                               ; preds = %16
  %23 = load i32, ptr %3, align 4, !tbaa !8
  %24 = load i32, ptr %5, align 4, !tbaa !8
  %25 = call noundef zeroext i1 @_ZNK5ZXing9BitMatrix3getEii(ptr noundef nonnull align 8 dereferenceable(32) %6, i32 noundef %23, i32 noundef %24)
  %26 = zext i1 %25 to i32
  %27 = load i32, ptr %5, align 4, !tbaa !8
  %28 = load i32, ptr %3, align 4, !tbaa !8
  %29 = call noundef zeroext i1 @_ZNK5ZXing9BitMatrix3getEii(ptr noundef nonnull align 8 dereferenceable(32) %6, i32 noundef %27, i32 noundef %28)
  %30 = zext i1 %29 to i32
  %31 = icmp ne i32 %26, %30
  br i1 %31, label %32, label %37

32:                                               ; preds = %22
  %33 = load i32, ptr %5, align 4, !tbaa !8
  %34 = load i32, ptr %3, align 4, !tbaa !8
  call void @_ZN5ZXing9BitMatrix4flipEii(ptr noundef nonnull align 8 dereferenceable(32) %6, i32 noundef %33, i32 noundef %34)
  %35 = load i32, ptr %3, align 4, !tbaa !8
  %36 = load i32, ptr %5, align 4, !tbaa !8
  call void @_ZN5ZXing9BitMatrix4flipEii(ptr noundef nonnull align 8 dereferenceable(32) %6, i32 noundef %35, i32 noundef %36)
  br label %37

37:                                               ; preds = %32, %22
  br label %38

38:                                               ; preds = %37
  %39 = load i32, ptr %5, align 4, !tbaa !8
  %40 = add nsw i32 %39, 1
  store i32 %40, ptr %5, align 4, !tbaa !8
  br label %16, !llvm.loop !35

41:                                               ; preds = %21
  br label %42

42:                                               ; preds = %41
  %43 = load i32, ptr %3, align 4, !tbaa !8
  %44 = add nsw i32 %43, 1
  store i32 %44, ptr %3, align 4, !tbaa !8
  br label %7, !llvm.loop !36

45:                                               ; preds = %12
  ret void
}