; Function Attrs: mustprogress uwtable
define void @_ZN5ZXing9BitMatrix6mirrorEv(ptr noundef nonnull readonly align 8 captures(none) dereferenceable(32) %0) local_unnamed_addr #0 align 2 {
  %2 = load i32, ptr %0, align 8, !tbaa !14
  %3 = icmp sgt i32 %2, 0
  br i1 %3, label %.lr.ph30, label %._crit_edge

.lr.ph30:                                         ; preds = %1
  %4 = getelementptr inbounds nuw i8, ptr %0, i64 4
  %5 = getelementptr inbounds nuw i8, ptr %0, i64 8
  %6 = getelementptr inbounds nuw i8, ptr %0, i64 16
  %.pre = load i32, ptr %4, align 4, !tbaa !3
  br label %11

.loopexit.loopexit:                               ; preds = %53
  %.pre44 = load i32, ptr %0, align 8, !tbaa !14
  br label %.loopexit

.loopexit:                                        ; preds = %.loopexit.loopexit, %11
  %7 = phi i32 [ %.pre44, %.loopexit.loopexit ], [ %12, %11 ]
  %8 = phi i32 [ %54, %.loopexit.loopexit ], [ %13, %11 ]
  %9 = phi i32 [ %54, %.loopexit.loopexit ], [ %14, %11 ]
  %10 = icmp slt i32 %15, %7
  br i1 %10, label %11, label %._crit_edge, !llvm.loop !27

._crit_edge:                                      ; preds = %.loopexit, %1
  ret void

11:                                               ; preds = %.lr.ph30, %.loopexit
  %12 = phi i32 [ %2, %.lr.ph30 ], [ %7, %.loopexit ]
  %13 = phi i32 [ %.pre, %.lr.ph30 ], [ %8, %.loopexit ]
  %14 = phi i32 [ %.pre, %.lr.ph30 ], [ %9, %.loopexit ]
  %.01329 = phi i32 [ 0, %.lr.ph30 ], [ %15, %.loopexit ]
  %15 = add nuw nsw i32 %.01329, 1
  %16 = icmp slt i32 %15, %14
  br i1 %16, label %.lr.ph, label %.loopexit

.lr.ph:                                           ; preds = %11, %53
  %17 = phi i32 [ %54, %53 ], [ %13, %11 ]
  %.028 = phi i32 [ %55, %53 ], [ %15, %11 ]
  %18 = load i32, ptr %0, align 8, !tbaa !14
  %19 = mul nsw i32 %18, %.028
  %20 = add nsw i32 %19, %.01329
  %21 = sext i32 %20 to i64
  %22 = load ptr, ptr %6, align 8, !tbaa !21
  %23 = load ptr, ptr %5, align 8, !tbaa !15
  %24 = ptrtoint ptr %22 to i64
  %25 = ptrtoint ptr %23 to i64
  %26 = sub i64 %24, %25
  %.not.i.i.i.i = icmp ugt i64 %26, %21
  br i1 %.not.i.i.i.i, label %_ZNK5ZXing9BitMatrix3getEii.exit, label %27

27:                                               ; preds = %.lr.ph
  tail call void (ptr, ...) @_ZSt24__throw_out_of_range_fmtPKcz(ptr noundef nonnull @.str.5, i64 noundef %21, i64 noundef %26) #17
  unreachable

_ZNK5ZXing9BitMatrix3getEii.exit:                 ; preds = %.lr.ph
  %28 = mul nsw i32 %18, %.01329
  %29 = add nsw i32 %28, %.028
  %30 = sext i32 %29 to i64
  %.not.i.i.i.i14 = icmp ugt i64 %26, %30
  br i1 %.not.i.i.i.i14, label %_ZNK5ZXing9BitMatrix3getEii.exit15, label %31

31:                                               ; preds = %_ZNK5ZXing9BitMatrix3getEii.exit
  tail call void (ptr, ...) @_ZSt24__throw_out_of_range_fmtPKcz(ptr noundef nonnull @.str.5, i64 noundef %30, i64 noundef %26) #17
  unreachable

_ZNK5ZXing9BitMatrix3getEii.exit15:               ; preds = %_ZNK5ZXing9BitMatrix3getEii.exit
  %32 = getelementptr inbounds nuw i8, ptr %23, i64 %21
  %33 = load i8, ptr %32, align 1, !tbaa !16
  %34 = icmp ne i8 %33, 0
  %35 = getelementptr inbounds nuw i8, ptr %23, i64 %30
  %36 = load i8, ptr %35, align 1, !tbaa !16
  %37 = icmp ne i8 %36, 0
  %38 = xor i1 %34, %37
  br i1 %38, label %_ZN5ZXing9BitMatrix4flipEii.exit, label %53

_ZN5ZXing9BitMatrix4flipEii.exit:                 ; preds = %_ZNK5ZXing9BitMatrix3getEii.exit15
  %.not.i = icmp eq i8 %36, 0
  %39 = zext i1 %.not.i to i8
  store i8 %39, ptr %35, align 1, !tbaa !16
  %40 = load i32, ptr %0, align 8, !tbaa !14
  %41 = mul nsw i32 %40, %.028
  %42 = add nsw i32 %41, %.01329
  %43 = sext i32 %42 to i64
  %44 = load ptr, ptr %6, align 8, !tbaa !21
  %45 = load ptr, ptr %5, align 8, !tbaa !15
  %46 = ptrtoint ptr %44 to i64
  %47 = ptrtoint ptr %45 to i64
  %48 = sub i64 %46, %47
  %.not.i.i.i.i.i16 = icmp ugt i64 %48, %43
  br i1 %.not.i.i.i.i.i16, label %_ZN5ZXing9BitMatrix4flipEii.exit18, label %49

49:                                               ; preds = %_ZN5ZXing9BitMatrix4flipEii.exit
  tail call void (ptr, ...) @_ZSt24__throw_out_of_range_fmtPKcz(ptr noundef nonnull @.str.5, i64 noundef %43, i64 noundef %48) #17
  unreachable

_ZN5ZXing9BitMatrix4flipEii.exit18:               ; preds = %_ZN5ZXing9BitMatrix4flipEii.exit
  %50 = getelementptr inbounds nuw i8, ptr %45, i64 %43
  %51 = load i8, ptr %50, align 1, !tbaa !16
  %.not.i17 = icmp eq i8 %51, 0
  %52 = zext i1 %.not.i17 to i8
  store i8 %52, ptr %50, align 1, !tbaa !16
  %.pre43 = load i32, ptr %4, align 4, !tbaa !3
  br label %53

53:                                               ; preds = %_ZNK5ZXing9BitMatrix3getEii.exit15, %_ZN5ZXing9BitMatrix4flipEii.exit18
  %54 = phi i32 [ %17, %_ZNK5ZXing9BitMatrix3getEii.exit15 ], [ %.pre43, %_ZN5ZXing9BitMatrix4flipEii.exit18 ]
  %55 = add nuw nsw i32 %.028, 1
  %56 = icmp slt i32 %55, %54
  br i1 %56, label %.lr.ph, label %.loopexit.loopexit, !llvm.loop !28
}